Certificate:
    Data:
        Version: 3 (0x2)
        Serial Number: 2 (0x2)
        Signature Algorithm: sha256WithRSAEncryption
        Issuer: C=CN, ST=Shanghai, L=Shanghai, O=Mashiro LLC, CN=Mashiro Internet Fake Authority CA
        Validity
            Not Before: Feb  7 01:49:27 2021 GMT
            Not After : Feb  5 01:49:27 2031 GMT
        Subject: C=CN, ST=Shanghai, O=Mashiro LLC, CN=mb3admin.com
        Subject Public Key Info:
            Public Key Algorithm: rsaEncryption
                RSA Public-Key: (2048 bit)
                Modulus:
                    00:c0:b8:a2:3e:16:97:1d:14:67:a0:a3:b8:ed:39:
                    8f:b2:33:4d:8e:ed:05:0b:65:89:ce:18:6f:8f:29:
                    ae:e9:87:e2:cd:df:ac:e5:0b:26:df:ee:5c:b2:5e:
                    6f:e1:f0:05:7b:52:46:c8:1e:26:03:fc:44:9f:64:
                    7f:c8:d4:a4:d3:3a:09:06:74:dc:b5:8d:08:ea:a6:
                    db:d0:6c:23:ca:3e:71:17:2f:be:67:1a:f4:7e:b2:
                    c9:48:39:26:e8:4d:7c:08:00:a9:22:4d:af:a5:37:
                    3b:48:ca:f8:6a:02:39:26:fd:ca:76:7f:e6:a3:2e:
                    a0:1f:7d:5b:84:1f:ba:81:4c:6d:8a:fb:ab:17:76:
                    ca:5d:3f:4f:50:ff:30:98:8e:01:0c:5d:e8:c2:6a:
                    68:20:8a:ff:30:0c:92:87:83:10:9e:df:b6:b4:2a:
                    5f:3e:1d:c2:d4:77:67:8d:26:54:4d:81:74:1e:ed:
                    e4:b5:62:71:f3:f5:de:5a:15:d4:46:8c:3d:45:e1:
                    f0:97:1a:fe:b8:e3:4f:ad:f6:6b:c1:b7:9f:22:f0:
                    d5:e4:20:68:df:dd:0d:f5:0b:2e:b8:be:76:e2:e6:
                    16:57:ab:b2:79:9a:9a:4a:9b:64:32:f6:cf:1d:a2:
                    bf:b2:d7:de:d3:b8:b4:87:11:2d:d1:4b:0c:7b:8f:
                    22:db
                Exponent: 65537 (0x10001)
        X509v3 extensions:
            X509v3 Subject Key Identifier: 
                C3:01:81:5A:1A:90:D5:33:26:85:04:DA:48:E4:E2:01:94:C4:E6:81
            X509v3 Authority Key Identifier: 
                keyid:DC:8A:E9:44:97:52:CE:4A:2C:E0:E8:D1:72:E7:06:8A:AE:D5:0A:DC

            X509v3 Basic Constraints: 
                CA:FALSE
            X509v3 Key Usage: 
                Digital Signature, Key Encipherment
            X509v3 Subject Alternative Name: 
                DNS:*.mb3admin.com, DNS:mb3admin.com, IP Address:127.0.0.1, IP Address:8.8.8.8
    Signature Algorithm: sha256WithRSAEncryption
         5f:bd:ab:9c:0c:5f:33:91:49:a0:7b:e1:1d:36:b3:9c:71:cd:
         62:9f:65:34:87:b5:4e:08:d4:8d:5f:f3:8b:9c:62:b1:ec:cf:
         47:33:ac:54:00:8b:9e:8b:01:27:32:4c:a7:88:2c:25:ba:dc:
         5f:29:cc:10:05:8e:63:76:94:ab:bb:09:17:3a:0e:cf:a8:ac:
         73:d7:54:e4:fa:ff:9f:69:3f:cf:80:94:7f:06:2f:b4:fe:4e:
         26:07:32:2a:94:ee:b5:aa:af:73:7d:cc:e0:d2:cb:d9:12:f8:
         21:d1:2a:e5:ea:62:2d:b0:e9:ec:79:4c:b4:32:79:c9:4a:00:
         6f:56:51:cf:ae:0c:28:a4:55:5f:e3:72:a0:53:30:cc:11:72:
         22:29:77:24:c3:1b:fe:32:91:5f:ef:83:45:11:ab:b9:5c:5e:
         a2:05:a9:81:7c:37:00:cf:e0:25:ff:12:93:15:41:b0:5e:8c:
         1d:dc:08:04:df:8b:8d:8a:50:2e:07:97:a5:5d:38:86:6f:18:
         d9:61:fb:7e:11:c3:89:58:4a:0c:a4:54:e7:2c:3e:bf:1b:f4:
         b5:63:fc:e4:d8:11:73:37:cb:53:0e:78:3a:bd:96:6c:a3:1c:
         c0:e9:63:83:02:1d:32:04:a3:53:e7:4d:0c:df:1c:68:81:d3:
         8c:78:ab:f4
-----BEGIN CERTIFICATE-----
MIIDzzCCAregAwIBAgIBAjANBgkqhkiG9w0BAQsFADB2MQswCQYDVQQGEwJDTjER
MA8GA1UECBMIU2hhbmdoYWkxETAPBgNVBAcTCFNoYW5naGFpMRQwEgYDVQQKEwtN
YXNoaXJvIExMQzErMCkGA1UEAxMiTWFzaGlybyBJbnRlcm5ldCBGYWtlIEF1dGhv
cml0eSBDQTAeFw0yMTAyMDcwMTQ5MjdaFw0zMTAyMDUwMTQ5MjdaME0xCzAJBgNV
BAYTAkNOMREwDwYDVQQIEwhTaGFuZ2hhaTEUMBIGA1UEChMLTWFzaGlybyBMTEMx
FTATBgNVBAMTDG1iM2FkbWluLmNvbTCCASIwDQYJKoZIhvcNAQEBBQADggEPADCC
AQoCggEBAMC4oj4Wlx0UZ6CjuO05j7IzTY7tBQtlic4Yb48prumH4s3frOULJt/u
XLJeb+HwBXtSRsgeJgP8RJ9kf8jUpNM6CQZ03LWNCOqm29BsI8o+cRcvvmca9H6y
yUg5JuhNfAgAqSJNr6U3O0jK+GoCOSb9ynZ/5qMuoB99W4QfuoFMbYr7qxd2yl0/
T1D/MJiOAQxd6MJqaCCK/zAMkoeDEJ7ftrQqXz4dwtR3Z40mVE2BdB7t5LVicfP1
3loV1EaMPUXh8Jca/rjjT632a8G3nyLw1eQgaN/dDfULLri+duLmFlersnmamkqb
ZDL2zx2iv7LX3tO4tIcRLdFLDHuPItsCAwEAAaOBkDCBjTAdBgNVHQ4EFgQUwwGB
WhqQ1TMmhQTaSOTiAZTE5oEwHwYDVR0jBBgwFoAU3IrpRJdSzkos4OjRcucGiq7V
CtwwCQYDVR0TBAIwADALBgNVHQ8EBAMCBaAwMwYDVR0RBCwwKoIOKi5tYjNhZG1p
bi5jb22CDG1iM2FkbWluLmNvbYcEfwAAAYcECAgICDANBgkqhkiG9w0BAQsFAAOC
AQEAX72rnAxfM5FJoHvhHTaznHHNYp9lNIe1TgjUjV/zi5xisezPRzOsVACLnosB
JzJMp4gsJbrcXynMEAWOY3aUq7sJFzoOz6isc9dU5Pr/n2k/z4CUfwYvtP5OJgcy
KpTutaqvc33M4NLL2RL4IdEq5epiLbDp7HlMtDJ5yUoAb1ZRz64MKKRVX+NyoFMw
zBFyIil3JMMb/jKRX++DRRGruVxeogWpgXw3AM/gJf8SkxVBsF6MHdwIBN+LjYpQ
LgeXpV04hm8Y2WH7fhHDiVhKDKRU5yw+vxv0tWP85NgRczfLUw54Or2WbKMcwOlj
gwIdMgSjU+dNDN8caIHTjHir9A==
-----END CERTIFICATE-----
