Certificate:
    Data:
        Version: 3 (0x2)
        Serial Number: 1 (0x1)
        Signature Algorithm: sha256WithRSAEncryption
        Issuer: C=CN, ST=Shanghai, L=Shanghai, O=Mashiro LLC, CN=Mashiro Internet Fake Authority CA
        Validity
            Not Before: Feb  7 01:43:35 2021 GMT
            Not After : Feb  5 01:43:35 2031 GMT
        Subject: C=CN, ST=Shanghai, O=Mashiro LLC, CN=*.2heng.xin
        Subject Public Key Info:
            Public Key Algorithm: rsaEncryption
                RSA Public-Key: (2048 bit)
                Modulus:
                    00:a8:0f:da:98:70:a8:a2:1a:ff:22:98:8d:a3:a2:
                    8c:73:ef:21:c3:8a:a5:54:36:fe:ea:f6:29:cf:81:
                    56:7b:d0:57:da:b5:5b:30:00:01:e2:ab:74:69:6b:
                    5a:24:a2:07:6e:09:d0:cf:38:f1:6b:77:3b:8b:46:
                    75:6d:db:96:99:a5:6f:8c:d0:12:09:a4:d7:f1:a3:
                    d6:66:4f:3c:67:25:92:45:78:43:35:b8:d4:6a:60:
                    5f:4d:38:b1:fd:bc:37:f5:5a:d6:f9:09:6b:1e:12:
                    59:a7:2f:85:c4:30:cc:c6:01:7f:a8:08:3d:6a:aa:
                    b3:5b:66:ee:d3:cf:e0:5d:d9:3e:dc:18:f6:18:72:
                    4f:58:a0:71:bf:2f:44:53:c5:c0:2c:02:7c:9c:c7:
                    fd:c0:00:1c:98:43:2f:cd:ba:d5:aa:e6:86:51:2d:
                    fe:3f:1c:5e:15:9e:67:2d:8b:9c:cc:ca:4c:b3:51:
                    9c:2d:3b:8b:8e:f2:f0:fe:e9:4c:1d:42:e4:ca:61:
                    26:cc:cc:fa:a0:79:64:20:7a:f8:7a:d9:93:cd:f8:
                    b2:4e:b7:fd:ff:86:ac:9f:2f:a0:ce:0d:05:6c:a6:
                    44:2c:23:93:8d:e3:f7:7b:48:32:7e:e6:e3:4f:75:
                    ca:36:db:6a:4d:be:6e:78:53:38:3e:0e:e5:3d:bc:
                    52:af
                Exponent: 65537 (0x10001)
        X509v3 extensions:
            X509v3 Subject Key Identifier: 
                6A:69:72:60:66:A6:44:41:70:D3:8C:DB:87:06:B3:48:9E:16:15:B3
            X509v3 Authority Key Identifier: 
                keyid:DC:8A:E9:44:97:52:CE:4A:2C:E0:E8:D1:72:E7:06:8A:AE:D5:0A:DC

            X509v3 Basic Constraints: 
                CA:FALSE
            X509v3 Key Usage: 
                Digital Signature, Key Encipherment
            X509v3 Subject Alternative Name: 
                DNS:*.2heng.xin, DNS:2heng.xin, IP Address:127.0.0.1, IP Address:8.8.8.8
    Signature Algorithm: sha256WithRSAEncryption
         6e:8f:f3:49:3a:06:5b:c1:0b:07:b2:cf:6a:7c:73:ce:b2:f7:
         51:a4:72:88:e1:f7:2a:53:bb:90:8f:2f:dc:2f:81:8e:36:dd:
         a7:95:2b:a3:78:e5:9a:3c:c7:75:1d:a9:90:bf:8c:d5:ab:47:
         69:a2:04:56:47:61:e1:4e:aa:19:55:5f:35:25:a9:da:66:cd:
         56:04:be:5b:7b:90:17:d5:6a:61:c2:18:5e:bf:50:4b:73:6f:
         c8:bd:5d:c6:f5:6e:e3:0e:a9:c8:62:40:f3:60:6e:b5:e1:3c:
         63:52:5e:a2:0c:00:5f:ad:ff:d2:9b:a9:89:77:5e:ab:c1:02:
         1d:83:d1:b9:26:b2:96:e1:d4:87:52:9e:e5:b4:59:fa:c3:55:
         7d:92:5d:cd:1f:cc:c1:a2:b9:b6:99:c9:32:58:c9:5d:31:65:
         94:64:ec:00:32:8d:39:c8:18:5b:83:17:c6:5e:ff:a1:b3:f6:
         df:dc:30:dc:e7:9d:60:75:2b:b9:ed:1b:ae:c9:98:89:8e:c4:
         ff:03:0d:08:8f:21:93:74:c1:7a:1d:91:f2:dd:bb:43:70:62:
         10:66:e8:b0:78:c1:b0:12:19:eb:49:fc:e6:77:76:f7:28:07:
         30:d9:15:53:d4:29:8e:cf:ef:66:ce:22:76:7f:5b:37:67:d3:
         79:c0:f9:65
-----BEGIN CERTIFICATE-----
MIIDyDCCArCgAwIBAgIBATANBgkqhkiG9w0BAQsFADB2MQswCQYDVQQGEwJDTjER
MA8GA1UECBMIU2hhbmdoYWkxETAPBgNVBAcTCFNoYW5naGFpMRQwEgYDVQQKEwtN
YXNoaXJvIExMQzErMCkGA1UEAxMiTWFzaGlybyBJbnRlcm5ldCBGYWtlIEF1dGhv
cml0eSBDQTAeFw0yMTAyMDcwMTQzMzVaFw0zMTAyMDUwMTQzMzVaMEwxCzAJBgNV
BAYTAkNOMREwDwYDVQQIEwhTaGFuZ2hhaTEUMBIGA1UEChMLTWFzaGlybyBMTEMx
FDASBgNVBAMUCyouMmhlbmcueGluMIIBIjANBgkqhkiG9w0BAQEFAAOCAQ8AMIIB
CgKCAQEAqA/amHCoohr/IpiNo6KMc+8hw4qlVDb+6vYpz4FWe9BX2rVbMAAB4qt0
aWtaJKIHbgnQzzjxa3c7i0Z1bduWmaVvjNASCaTX8aPWZk88ZyWSRXhDNbjUamBf
TTix/bw39VrW+QlrHhJZpy+FxDDMxgF/qAg9aqqzW2bu08/gXdk+3Bj2GHJPWKBx
vy9EU8XALAJ8nMf9wAAcmEMvzbrVquaGUS3+PxxeFZ5nLYuczMpMs1GcLTuLjvLw
/ulMHULkymEmzMz6oHlkIHr4etmTzfiyTrf9/4asny+gzg0FbKZELCOTjeP3e0gy
fubjT3XKNttqTb5ueFM4Pg7lPbxSrwIDAQABo4GKMIGHMB0GA1UdDgQWBBRqaXJg
ZqZEQXDTjNuHBrNInhYVszAfBgNVHSMEGDAWgBTciulEl1LOSizg6NFy5waKrtUK
3DAJBgNVHRMEAjAAMAsGA1UdDwQEAwIFoDAtBgNVHREEJjAkggsqLjJoZW5nLnhp
boIJMmhlbmcueGluhwR/AAABhwQICAgIMA0GCSqGSIb3DQEBCwUAA4IBAQBuj/NJ
OgZbwQsHss9qfHPOsvdRpHKI4fcqU7uQjy/cL4GONt2nlSujeOWaPMd1HamQv4zV
q0dpogRWR2HhTqoZVV81JanaZs1WBL5be5AX1Wphwhhev1BLc2/IvV3G9W7jDqnI
YkDzYG614TxjUl6iDABfrf/Sm6mJd16rwQIdg9G5JrKW4dSHUp7ltFn6w1V9kl3N
H8zBorm2mckyWMldMWWUZOwAMo05yBhbgxfGXv+hs/bf3DDc551gdSu57RuuyZiJ
jsT/Aw0IjyGTdMF6HZHy3btDcGIQZuiweMGwEhnrSfzmd3b3KAcw2RVT1CmOz+9m
ziJ2f1s3Z9N5wPll
-----END CERTIFICATE-----
